target datalayout = "e-m:e-p270:32:32-p271:32:32-p272:64:64-i64:64-i128:128-f80:128-n8:16:32:64-S128"
target triple = "x86_64-pc-linux-gnu"

%"struct.std::once_flag" = type { i32 }
%"class.llvm::MachinePassRegistry" = type { ptr, ptr, ptr }
%"struct.std::once_flag::_Prepare_execution" = type { i8 }
%class.anon.306 = type { ptr }
%class.anon.307 = type { i8 }

@_ZL38InitializeDefaultRegisterAllocatorFlag = internal global %"struct.std::once_flag" zeroinitializer, align 4
@_ZN4llvm20RegisterRegAllocBaseINS_16RegisterRegAllocEE8RegistryE = linkonce_odr global %"class.llvm::MachinePassRegistry" zeroinitializer, comdat, align 8
@_ZSt15__once_callable = external thread_local global ptr, align 8
@_ZSt11__once_call = external thread_local global ptr, align 8

; Function Attrs: mustprogress nounwind uwtable
define internal noundef i32 @_ZL18__gthread_active_pv() #1 {
  ret i32 1
}

; Function Attrs: mustprogress nounwind uwtable
define linkonce_odr hidden noundef ptr @_ZZNSt9once_flag18_Prepare_executionC1IZSt9call_onceIRFvvEJEEvRS_OT_DpOT0_EUlvE_EERS6_ENKUlvE_cvPS3_Ev(ptr noundef nonnull align 1 dereferenceable(1) %0) #1 comdat align 2 {
  %2 = alloca ptr, align 8
  store ptr %0, ptr %2, align 8
  ret ptr @_ZZNSt9once_flag18_Prepare_executionC1IZSt9call_onceIRFvvEJEEvRS_OT_DpOT0_EUlvE_EERS6_ENUlvE_8__invokeEv
}

; Function Attrs: mustprogress nounwind uwtable
define linkonce_odr hidden void @_ZNSt9once_flag18_Prepare_executionD2Ev(ptr noundef nonnull align 1 dereferenceable(1) %0) unnamed_addr #1 comdat align 2 {
  %2 = alloca ptr, align 8
  store ptr %0, ptr %2, align 8
  %3 = call align 8 ptr @llvm.threadlocal.address.p0(ptr align 8 @_ZSt15__once_callable)
  store ptr null, ptr %3, align 8
  %4 = call align 8 ptr @llvm.threadlocal.address.p0(ptr align 8 @_ZSt11__once_call)
  store ptr null, ptr %4, align 8
  ret void
}

; Function Attrs: mustprogress nounwind uwtable
define internal noundef i32 @_ZL14__gthread_oncePiPFvvE(ptr noundef %0, ptr noundef %1) #1 {
  %3 = alloca i32, align 4
  %4 = alloca ptr, align 8
  %5 = alloca ptr, align 8
  store ptr %0, ptr %4, align 8
  store ptr %1, ptr %5, align 8
  %6 = call noundef i32 @_ZL18__gthread_active_pv()
  %7 = icmp ne i32 %6, 0
  br i1 %7, label %8, label %12

8:                                                ; preds = %2
  %9 = load ptr, ptr %4, align 8
  %10 = load ptr, ptr %5, align 8
  %11 = call i32 @pthread_once(ptr noundef %9, ptr noundef %10)
  store i32 %11, ptr %3, align 4
  br label %13

12:                                               ; preds = %2
  store i32 -1, ptr %3, align 4
  br label %13

13:                                               ; preds = %12, %8
  %14 = load i32, ptr %3, align 4
  ret i32 %14
}

; Function Attrs: mustprogress nounwind uwtable
define linkonce_odr hidden void @_ZNSt9once_flag18_Prepare_executionC2IZSt9call_onceIRFvvEJEEvRS_OT_DpOT0_EUlvE_EERS6_(ptr noundef nonnull align 1 dereferenceable(1) %0, ptr noundef nonnull align 8 dereferenceable(8) %1) unnamed_addr #1 comdat align 2 {
  %3 = alloca ptr, align 8
  %4 = alloca ptr, align 8
  %5 = alloca %class.anon.307, align 1
  store ptr %0, ptr %3, align 8
  store ptr %1, ptr %4, align 8
  %6 = load ptr, ptr %4, align 8
  %7 = call align 8 ptr @llvm.threadlocal.address.p0(ptr align 8 @_ZSt15__once_callable)
  store ptr %6, ptr %7, align 8
  %8 = call noundef ptr @_ZZNSt9once_flag18_Prepare_executionC1IZSt9call_onceIRFvvEJEEvRS_OT_DpOT0_EUlvE_EERS6_ENKUlvE_cvPS3_Ev(ptr noundef nonnull align 1 dereferenceable(1) %5) #2
  %9 = call align 8 ptr @llvm.threadlocal.address.p0(ptr align 8 @_ZSt11__once_call)
  store ptr %8, ptr %9, align 8
  ret void
}

; Function Attrs: mustprogress nounwind uwtable
define linkonce_odr hidden noundef ptr @_ZN4llvm19MachinePassRegistryIPFPNS_12FunctionPassEvEE10getDefaultEv(ptr noundef nonnull align 8 dereferenceable(24) %0) #1 comdat align 2 {
  %2 = alloca ptr, align 8
  store ptr %0, ptr %2, align 8
  %3 = load ptr, ptr %2, align 8
  %4 = getelementptr inbounds nuw %"class.llvm::MachinePassRegistry", ptr %3, i32 0, i32 1
  %5 = load ptr, ptr %4, align 8
  ret ptr %5
}

; Function Attrs: mustprogress nounwind uwtable
define linkonce_odr void @_ZSt9call_onceIRFvvEJEEvRSt9once_flagOT_DpOT0_(ptr noundef nonnull align 4 dereferenceable(4) %0, ptr noundef nonnull %1) #1 comdat {
  %3 = alloca ptr, align 8
  %4 = alloca ptr, align 8
  %5 = alloca %class.anon.306, align 8
  %6 = alloca %"struct.std::once_flag::_Prepare_execution", align 1
  %7 = alloca i32, align 4
  store ptr %0, ptr %3, align 8
  store ptr %1, ptr %4, align 8
  %8 = getelementptr inbounds nuw %class.anon.306, ptr %5, i32 0, i32 0
  %9 = load ptr, ptr %4, align 8
  store ptr %9, ptr %8, align 8
  call void @_ZNSt9once_flag18_Prepare_executionC2IZSt9call_onceIRFvvEJEEvRS_OT_DpOT0_EUlvE_EERS6_(ptr noundef nonnull align 1 dereferenceable(1) %6, ptr noundef nonnull align 8 dereferenceable(8) %5)
  %10 = load ptr, ptr %3, align 8
  %11 = getelementptr inbounds nuw %"struct.std::once_flag", ptr %10, i32 0, i32 0
  %12 = call noundef i32 @_ZL14__gthread_oncePiPFvvE(ptr noundef %11, ptr noundef @__once_proxy)
  store i32 %12, ptr %7, align 4
  %13 = load i32, ptr %7, align 4
  %14 = icmp ne i32 %13, 0
  br i1 %14, label %15, label %17

15:                                               ; preds = %2
  %16 = load i32, ptr %7, align 4
  call void @_ZSt20__throw_system_errori(i32 noundef %16) #16
  unreachable

17:                                               ; preds = %2
  call void @_ZNSt9once_flag18_Prepare_executionD2Ev(ptr noundef nonnull align 1 dereferenceable(1) %6) #2
  ret void
}

; Function Attrs: mustprogress nounwind uwtable
define linkonce_odr hidden noundef ptr @_ZN4llvm20RegisterRegAllocBaseINS_16RegisterRegAllocEE10getDefaultEv() #1 comdat align 2 {
  %1 = call noundef ptr @_ZN4llvm19MachinePassRegistryIPFPNS_12FunctionPassEvEE10getDefaultEv(ptr noundef nonnull align 8 dereferenceable(24) @_ZN4llvm20RegisterRegAllocBaseINS_16RegisterRegAllocEE8RegistryE)
  ret ptr %1
}

; Function Attrs: mustprogress nounwind uwtable
define linkonce_odr void @_ZN4llvm9call_onceIRFvvEJEEEvRSt9once_flagOT_DpOT0_(ptr noundef nonnull align 4 dereferenceable(4) %0, ptr noundef nonnull %1) #1 comdat {
  %3 = alloca ptr, align 8
  %4 = alloca ptr, align 8
  store ptr %0, ptr %3, align 8
  store ptr %1, ptr %4, align 8
  %5 = load ptr, ptr %3, align 8
  %6 = load ptr, ptr %4, align 8
  call void @_ZSt9call_onceIRFvvEJEEvRSt9once_flagOT_DpOT0_(ptr noundef nonnull align 4 dereferenceable(4) %5, ptr noundef nonnull %6)
  ret void
}

; Function Attrs: mustprogress nounwind uwtable
define dso_local noundef ptr @_ZN4llvm16TargetPassConfig18createRegAllocPassEb(ptr noundef nonnull align 8 dereferenceable(134) %0, i1 noundef zeroext %1) unnamed_addr #1 align 2 {
  %3 = alloca ptr, align 8
  %4 = alloca ptr, align 8
  %5 = alloca i8, align 1
  %6 = alloca ptr, align 8
  store ptr %0, ptr %4, align 8
  %7 = zext i1 %1 to i8
  store i8 %7, ptr %5, align 1
  %8 = load ptr, ptr %4, align 8
  call void @_ZN4llvm9call_onceIRFvvEJEEEvRSt9once_flagOT_DpOT0_(ptr noundef nonnull align 4 dereferenceable(4) @_ZL38InitializeDefaultRegisterAllocatorFlag, ptr noundef nonnull @_ZL38initializeDefaultRegisterAllocatorOncev)
  %9 = call noundef ptr @_ZN4llvm20RegisterRegAllocBaseINS_16RegisterRegAllocEE10getDefaultEv()
  store ptr %9, ptr %6, align 8
  %10 = load ptr, ptr %6, align 8
  %11 = icmp ne ptr %10, @_ZL27useDefaultRegisterAllocatorv
  br i1 %11, label %12, label %15

12:                                               ; preds = %2
  %13 = load ptr, ptr %6, align 8
  %14 = call noundef ptr %13()
  store ptr %14, ptr %3, align 8
  br label %22

15:                                               ; preds = %2
  %16 = load i8, ptr %5, align 1
  %17 = trunc i8 %16 to i1
  %18 = load ptr, ptr %8, align 8
  %19 = getelementptr inbounds ptr, ptr %18, i64 40
  %20 = load ptr, ptr %19, align 8
  %21 = call noundef ptr %20(ptr noundef nonnull align 8 dereferenceable(134) %8, i1 noundef zeroext %17)
  store ptr %21, ptr %3, align 8
  br label %22

22:                                               ; preds = %15, %12
  %23 = load ptr, ptr %3, align 8
  ret ptr %23
}