; Function Attrs: mustprogress nounwind uwtable
define dso_local noundef ptr @_ZN4llvm16TargetPassConfig18createRegAllocPassEb(ptr noundef nonnull align 8 dereferenceable(134) %0, i1 noundef zeroext %1) unnamed_addr #0 align 2 {
  %3 = alloca %class.anon.306, align 8
  call void @llvm.lifetime.start.p0(i64 8, ptr nonnull %3)
  store ptr @_ZL38initializeDefaultRegisterAllocatorOncev, ptr %3, align 8
  %4 = tail call align 8 ptr @llvm.threadlocal.address.p0(ptr align 8 @_ZSt15__once_callable)
  store ptr %3, ptr %4, align 8
  %5 = call align 8 ptr @llvm.threadlocal.address.p0(ptr align 8 @_ZSt11__once_call)
  store ptr @_ZZNSt9once_flag18_Prepare_executionC1IZSt9call_onceIRFvvEJEEvRS_OT_DpOT0_EUlvE_EERS6_ENUlvE_8__invokeEv, ptr %5, align 8
  %6 = call noundef i32 @pthread_once(ptr noundef nonnull @_ZL38InitializeDefaultRegisterAllocatorFlag, ptr noundef nonnull @__once_proxy) #26
  %.not.i.i = icmp eq i32 %6, 0
  br i1 %.not.i.i, label %_ZN4llvm9call_onceIRFvvEJEEEvRSt9once_flagOT_DpOT0_.exit, label %7

7:                                                ; preds = %2
  call void @_ZSt20__throw_system_errori(i32 noundef %6) #27
  unreachable

_ZN4llvm9call_onceIRFvvEJEEEvRSt9once_flagOT_DpOT0_.exit: ; preds = %2
  store ptr null, ptr %4, align 8
  store ptr null, ptr %5, align 8
  call void @llvm.lifetime.end.p0(i64 8, ptr nonnull %3)
  %8 = load ptr, ptr getelementptr inbounds nuw (i8, ptr @_ZN4llvm20RegisterRegAllocBaseINS_16RegisterRegAllocEE8RegistryE, i64 8), align 8
  %.not = icmp eq ptr %8, @_ZL27useDefaultRegisterAllocatorv
  br i1 %.not, label %11, label %9

9:                                                ; preds = %_ZN4llvm9call_onceIRFvvEJEEEvRSt9once_flagOT_DpOT0_.exit
  %10 = call noundef ptr %8() #26
  br label %16

11:                                               ; preds = %_ZN4llvm9call_onceIRFvvEJEEEvRSt9once_flagOT_DpOT0_.exit
  %12 = load ptr, ptr %0, align 8
  %13 = getelementptr inbounds i8, ptr %12, i64 320
  %14 = load ptr, ptr %13, align 8
  %15 = call noundef ptr %14(ptr noundef nonnull align 8 dereferenceable(134) %0, i1 noundef zeroext %1) #26
  br label %16

16:                                               ; preds = %11, %9
  %.0 = phi ptr [ %10, %9 ], [ %15, %11 ]
  ret ptr %.0
}